target datalayout = "e-m:e-p270:32:32-p271:32:32-p272:64:64-i64:64-i128:128-f80:128-n8:16:32:64-S128"
target triple = "x86_64-pc-linux-gnu"

%struct.Agdesc_s = type { i8, [3 x i8] }
%struct.Agraph_s = type { %struct.Agobj_s, %struct.Agdesc_s, %struct.dtlink_s_, %struct.dtlink_s_, ptr, ptr, ptr, ptr, ptr, ptr, ptr, ptr, ptr }
%struct.Agobj_s = type { %struct.Agtag_s, ptr }
%struct.Agtag_s = type { i32, i64 }
%struct.dtlink_s_ = type { ptr, %union.anon.1 }
%union.anon.1 = type { ptr }
%struct.graphinfo_t = type { %struct.Agrec_s, i8 }
%struct.Agrec_s = type { ptr, ptr }

@useClusters = internal global i8 0, align 1
@doEdges = internal global i8 1, align 1

; Function Attrs: nounwind uwtable
define internal ptr @projectG(ptr noundef %0, ptr noundef %1, i32 noundef %2) #0 {
  %4 = alloca ptr, align 8
  %5 = alloca ptr, align 8
  %6 = alloca i32, align 4
  %7 = alloca ptr, align 8
  %8 = alloca ptr, align 8
  %9 = alloca ptr, align 8
  store ptr %0, ptr %4, align 8, !tbaa !11
  store ptr %1, ptr %5, align 8, !tbaa !11
  store i32 %2, ptr %6, align 4, !tbaa !4
  call void @llvm.lifetime.start.p0(i64 8, ptr %7) #14
  store ptr null, ptr %7, align 8, !tbaa !11
  call void @llvm.lifetime.start.p0(i64 8, ptr %8) #14
  call void @llvm.lifetime.start.p0(i64 8, ptr %9) #14
  %10 = load ptr, ptr %4, align 8, !tbaa !11
  %11 = call ptr @agfstnode(ptr noundef %10)
  store ptr %11, ptr %9, align 8, !tbaa !25
  br label %12

12:                                               ; preds = %35, %3
  %13 = load ptr, ptr %9, align 8, !tbaa !25
  %14 = icmp ne ptr %13, null
  br i1 %14, label %16, label %15

15:                                               ; preds = %12
  call void @llvm.lifetime.end.p0(i64 8, ptr %9) #14
  br label %39

16:                                               ; preds = %12
  %17 = load ptr, ptr %5, align 8, !tbaa !11
  %18 = load ptr, ptr %9, align 8, !tbaa !25
  %19 = call ptr @agnameof(ptr noundef %18)
  %20 = call ptr @agnode(ptr noundef %17, ptr noundef %19, i32 noundef 0)
  store ptr %20, ptr %8, align 8, !tbaa !25
  %21 = icmp ne ptr %20, null
  br i1 %21, label %22, label %34

22:                                               ; preds = %16
  %23 = load ptr, ptr %7, align 8, !tbaa !11
  %24 = icmp eq ptr %23, null
  br i1 %24, label %25, label %30

25:                                               ; preds = %22
  %26 = load ptr, ptr %5, align 8, !tbaa !11
  %27 = load ptr, ptr %4, align 8, !tbaa !11
  %28 = call ptr @agnameof(ptr noundef %27)
  %29 = call ptr @agsubg(ptr noundef %26, ptr noundef %28, i32 noundef 1)
  store ptr %29, ptr %7, align 8, !tbaa !11
  br label %30

30:                                               ; preds = %25, %22
  %31 = load ptr, ptr %7, align 8, !tbaa !11
  %32 = load ptr, ptr %8, align 8, !tbaa !25
  %33 = call ptr @agsubnode(ptr noundef %31, ptr noundef %32, i32 noundef 1)
  br label %34

34:                                               ; preds = %30, %16
  br label %35

35:                                               ; preds = %34
  %36 = load ptr, ptr %4, align 8, !tbaa !11
  %37 = load ptr, ptr %9, align 8, !tbaa !25
  %38 = call ptr @agnxtnode(ptr noundef %36, ptr noundef %37)
  store ptr %38, ptr %9, align 8, !tbaa !25
  br label %12, !llvm.loop !88

39:                                               ; preds = %15
  %40 = load ptr, ptr %7, align 8, !tbaa !11
  %41 = icmp ne ptr %40, null
  br i1 %41, label %50, label %42

42:                                               ; preds = %39
  %43 = load i32, ptr %6, align 4, !tbaa !4
  %44 = icmp ne i32 %43, 0
  br i1 %44, label %45, label %50

45:                                               ; preds = %42
  %46 = load ptr, ptr %5, align 8, !tbaa !11
  %47 = load ptr, ptr %4, align 8, !tbaa !11
  %48 = call ptr @agnameof(ptr noundef %47)
  %49 = call ptr @agsubg(ptr noundef %46, ptr noundef %48, i32 noundef 1)
  store ptr %49, ptr %7, align 8, !tbaa !11
  br label %50

50:                                               ; preds = %45, %42, %39
  %51 = load ptr, ptr %7, align 8, !tbaa !11
  %52 = icmp ne ptr %51, null
  br i1 %52, label %53, label %64

53:                                               ; preds = %50
  %54 = load i8, ptr @doEdges, align 1, !tbaa !17, !range !23, !noundef !24
  %55 = trunc i8 %54 to i1
  br i1 %55, label %56, label %60

56:                                               ; preds = %53
  %57 = load ptr, ptr %7, align 8, !tbaa !11
  %58 = load ptr, ptr %4, align 8, !tbaa !11
  %59 = call i64 @graphviz_node_induce(ptr noundef %57, ptr noundef %58)
  br label %60

60:                                               ; preds = %56, %53
  %61 = load ptr, ptr %4, align 8, !tbaa !11
  %62 = load ptr, ptr %7, align 8, !tbaa !11
  %63 = call i32 @agcopyattr(ptr noundef %61, ptr noundef %62)
  br label %64

64:                                               ; preds = %60, %50
  %65 = load ptr, ptr %7, align 8, !tbaa !11
  call void @llvm.lifetime.end.p0(i64 8, ptr %8) #14
  call void @llvm.lifetime.end.p0(i64 8, ptr %7) #14
  ret ptr %65
}

; Function Attrs: nounwind uwtable
define internal void @subgInduce(ptr noundef %0, ptr noundef %1, i32 noundef %2) #0 {
  %4 = alloca ptr, align 8
  %5 = alloca ptr, align 8
  %6 = alloca i32, align 4
  %7 = alloca ptr, align 8
  %8 = alloca ptr, align 8
  %9 = alloca i32, align 4
  store ptr %0, ptr %4, align 8, !tbaa !11
  store ptr %1, ptr %5, align 8, !tbaa !11
  store i32 %2, ptr %6, align 4, !tbaa !4
  call void @llvm.lifetime.start.p0(i64 8, ptr %7) #14
  call void @llvm.lifetime.start.p0(i64 8, ptr %8) #14
  %10 = load ptr, ptr %4, align 8, !tbaa !11
  %11 = call ptr @agfstsubg(ptr noundef %10)
  store ptr %11, ptr %8, align 8, !tbaa !11
  br label %12

12:                                               ; preds = %49, %3
  %13 = load ptr, ptr %8, align 8, !tbaa !11
  %14 = icmp ne ptr %13, null
  br i1 %14, label %16, label %15

15:                                               ; preds = %12
  call void @llvm.lifetime.end.p0(i64 8, ptr %8) #14
  br label %52

16:                                               ; preds = %12
  %17 = load ptr, ptr %8, align 8, !tbaa !11
  %18 = getelementptr inbounds nuw %struct.Agraph_s, ptr %17, i32 0, i32 0
  %19 = getelementptr inbounds nuw %struct.Agobj_s, ptr %18, i32 0, i32 1
  %20 = load ptr, ptr %19, align 8, !tbaa !27
  %21 = getelementptr inbounds nuw %struct.graphinfo_t, ptr %20, i32 0, i32 1
  %22 = load i8, ptr %21, align 8, !tbaa !39, !range !23, !noundef !24
  %23 = trunc i8 %22 to i1
  br i1 %23, label %24, label %25

24:                                               ; preds = %16
  br label %49

25:                                               ; preds = %16
  %26 = load ptr, ptr %8, align 8, !tbaa !11
  %27 = load ptr, ptr %5, align 8, !tbaa !11
  %28 = load i32, ptr %6, align 4, !tbaa !4
  %29 = call ptr @projectG(ptr noundef %26, ptr noundef %27, i32 noundef %28)
  store ptr %29, ptr %7, align 8, !tbaa !11
  %30 = icmp ne ptr %29, null
  br i1 %30, label %31, label %48

31:                                               ; preds = %25
  call void @llvm.lifetime.start.p0(i64 4, ptr %9) #14
  %32 = load i32, ptr %6, align 4, !tbaa !4
  %33 = icmp ne i32 %32, 0
  br i1 %33, label %42, label %34

34:                                               ; preds = %31
  %35 = load i8, ptr @useClusters, align 1, !tbaa !17, !range !23, !noundef !24
  %36 = trunc i8 %35 to i1
  br i1 %36, label %37, label %40

37:                                               ; preds = %34
  %38 = load ptr, ptr %8, align 8, !tbaa !11
  %39 = call zeroext i1 @is_a_cluster(ptr noundef %38)
  br label %40

40:                                               ; preds = %37, %34
  %41 = phi i1 [ false, %34 ], [ %39, %37 ]
  br label %42

42:                                               ; preds = %40, %31
  %43 = phi i1 [ true, %31 ], [ %41, %40 ]
  %44 = zext i1 %43 to i32
  store i32 %44, ptr %9, align 4, !tbaa !4
  %45 = load ptr, ptr %8, align 8, !tbaa !11
  %46 = load ptr, ptr %7, align 8, !tbaa !11
  %47 = load i32, ptr %9, align 4, !tbaa !4
  call void @subgInduce(ptr noundef %45, ptr noundef %46, i32 noundef %47)
  call void @llvm.lifetime.end.p0(i64 4, ptr %9) #14
  br label %48

48:                                               ; preds = %42, %25
  br label %49

49:                                               ; preds = %48, %24
  %50 = load ptr, ptr %8, align 8, !tbaa !11
  %51 = call ptr @agnxtsubg(ptr noundef %50)
  store ptr %51, ptr %8, align 8, !tbaa !11
  br label %12, !llvm.loop !87

52:                                               ; preds = %15
  call void @llvm.lifetime.end.p0(i64 8, ptr %7) #14
  ret void
}