; Function Attrs: nounwind uwtable
define internal fastcc void @subgInduce(ptr noundef nonnull %0, ptr noundef %1, i32 noundef range(i32 0, 2) %2) unnamed_addr #11 {
  %4 = tail call ptr @agfstsubg(ptr noundef nonnull %0) #23
  %.not15 = icmp eq ptr %4, null
  br i1 %.not15, label %._crit_edge, label %.lr.ph

.lr.ph:                                           ; preds = %3
  %5 = icmp ne i32 %2, 0
  %.not13 = icmp eq i32 %2, 0
  br label %6

._crit_edge:                                      ; preds = %projectG.exit.thread, %3
  ret void

6:                                                ; preds = %.lr.ph, %projectG.exit.thread
  %.016 = phi ptr [ %4, %.lr.ph ], [ %41, %projectG.exit.thread ]
  %7 = getelementptr inbounds nuw i8, ptr %.016, i64 16
  %8 = load ptr, ptr %7, align 8, !tbaa !39
  %9 = getelementptr inbounds nuw i8, ptr %8, i64 16
  %10 = load i8, ptr %9, align 8, !tbaa !45, !range !68, !noundef !69
  %11 = trunc nuw i8 %10 to i1
  br i1 %11, label %projectG.exit.thread, label %12

12:                                               ; preds = %6
  %13 = tail call ptr @agfstnode(ptr noundef nonnull %.016) #23
  %.not25.i = icmp eq ptr %13, null
  br i1 %.not25.i, label %._crit_edge.i, label %.lr.ph.i

._crit_edge.i:                                    ; preds = %24, %12
  %.021.lcssa.i = phi ptr [ null, %12 ], [ %.2.i, %24 ]
  %14 = icmp eq ptr %.021.lcssa.i, null
  %or.cond.i = and i1 %5, %14
  br i1 %or.cond.i, label %26, label %29

.lr.ph.i:                                         ; preds = %12, %24
  %.027.i = phi ptr [ %25, %24 ], [ %13, %12 ]
  %.02126.i = phi ptr [ %.2.i, %24 ], [ null, %12 ]
  %15 = tail call ptr @agnameof(ptr noundef nonnull %.027.i) #23
  %16 = tail call ptr @agnode(ptr noundef %1, ptr noundef %15, i32 noundef 0) #23
  %.not24.i = icmp eq ptr %16, null
  br i1 %.not24.i, label %24, label %17

17:                                               ; preds = %.lr.ph.i
  %18 = icmp eq ptr %.02126.i, null
  br i1 %18, label %19, label %22

19:                                               ; preds = %17
  %20 = tail call ptr @agnameof(ptr noundef nonnull %.016) #23
  %21 = tail call ptr @agsubg(ptr noundef %1, ptr noundef %20, i32 noundef 1) #23
  br label %22

22:                                               ; preds = %19, %17
  %.1.i = phi ptr [ %21, %19 ], [ %.02126.i, %17 ]
  %23 = tail call ptr @agsubnode(ptr noundef %.1.i, ptr noundef nonnull %16, i32 noundef 1) #23
  br label %24

24:                                               ; preds = %22, %.lr.ph.i
  %.2.i = phi ptr [ %.1.i, %22 ], [ %.02126.i, %.lr.ph.i ]
  %25 = tail call ptr @agnxtnode(ptr noundef nonnull %.016, ptr noundef nonnull %.027.i) #23
  %.not.i = icmp eq ptr %25, null
  br i1 %.not.i, label %._crit_edge.i, label %.lr.ph.i, !llvm.loop !77

26:                                               ; preds = %._crit_edge.i
  %27 = tail call ptr @agnameof(ptr noundef nonnull %.016) #23
  %28 = tail call ptr @agsubg(ptr noundef %1, ptr noundef %27, i32 noundef 1) #23
  br label %29

29:                                               ; preds = %26, %._crit_edge.i
  %.3.i = phi ptr [ %28, %26 ], [ %.021.lcssa.i, %._crit_edge.i ]
  %.not23.i = icmp eq ptr %.3.i, null
  br i1 %.not23.i, label %projectG.exit.thread, label %30

30:                                               ; preds = %29
  %.b.i = load i1, ptr @doEdges, align 1
  br i1 %.b.i, label %33, label %31

31:                                               ; preds = %30
  %32 = tail call i64 @graphviz_node_induce(ptr noundef nonnull %.3.i, ptr noundef nonnull %.016) #23
  br label %33

33:                                               ; preds = %31, %30
  %34 = tail call i32 @agcopyattr(ptr noundef nonnull %.016, ptr noundef nonnull %.3.i) #23
  br i1 %.not13, label %35, label %39

35:                                               ; preds = %33
  %.b14 = load i1, ptr @useClusters, align 1
  br i1 %.b14, label %36, label %39

36:                                               ; preds = %35
  %37 = tail call zeroext i1 @is_a_cluster(ptr noundef nonnull %.016) #23
  %38 = zext i1 %37 to i32
  br label %39

39:                                               ; preds = %35, %36, %33
  %40 = phi i32 [ 1, %33 ], [ 0, %35 ], [ %38, %36 ]
  tail call fastcc void @subgInduce(ptr noundef %.016, ptr noundef nonnull %.3.i, i32 noundef %40)
  br label %projectG.exit.thread

projectG.exit.thread:                             ; preds = %29, %39, %6
  %41 = tail call ptr @agnxtsubg(ptr noundef nonnull %.016) #23
  %.not = icmp eq ptr %41, null
  br i1 %.not, label %._crit_edge, label %6, !llvm.loop !78
}